target datalayout = "e-m:e-p270:32:32-p271:32:32-p272:64:64-i64:64-i128:128-f80:128-n8:16:32:64-S128"
target triple = "x86_64-pc-linux-gnu"

%class.btAlignedObjectArray.0 = type <{ [4 x i8], i32, i32, [4 x i8], ptr, i8, [7 x i8] }>
%class.btAlignedObjectArray.2 = type <{ [4 x i8], i32, i32, [4 x i8], ptr, i8, [7 x i8] }>
%class.btSequentialImpulseConstraintSolver = type { %class.btConstraintSolver, %class.btAlignedObjectArray.4, %class.btAlignedObjectArray.6, %class.btAlignedObjectArray.6, %class.btAlignedObjectArray.6, %class.btAlignedObjectArray.6, %class.btAlignedObjectArray.0, %class.btAlignedObjectArray.0, %class.btAlignedObjectArray.0, %class.btAlignedObjectArray.8, i32, i32, %class.btAlignedObjectArray.0, ptr, ptr, ptr, i32, float, i64, %struct.btSolverAnalyticsData }
%class.btConstraintSolver = type { ptr }
%class.btAlignedObjectArray.4 = type <{ [4 x i8], i32, i32, [4 x i8], ptr, i8, [7 x i8] }>
%class.btAlignedObjectArray.6 = type <{ [4 x i8], i32, i32, [4 x i8], ptr, i8, [7 x i8] }>
%class.btAlignedObjectArray.8 = type <{ [4 x i8], i32, i32, [4 x i8], ptr, i8, [7 x i8] }>
%struct.btSolverAnalyticsData = type { i32, i32, i32, i32, i32, double }
%class.btAlignedObjectArray.10 = type <{ [4 x i8], i32, i32, [4 x i8], ptr, i8, [7 x i8] }>
%struct.btMultiBodyJacobianData = type <{ %class.btAlignedObjectArray.12, %class.btAlignedObjectArray.12, %class.btAlignedObjectArray.12, %class.btAlignedObjectArray.12, %class.btAlignedObjectArray.2, %class.btAlignedObjectArray.14, ptr, i32, [4 x i8] }>
%class.btAlignedObjectArray.12 = type <{ [4 x i8], i32, i32, [4 x i8], ptr, i8, [7 x i8] }>
%class.btAlignedObjectArray.14 = type <{ [4 x i8], i32, i32, [4 x i8], ptr, i8, [7 x i8] }>
%class.btMultiBodyConstraintSolver = type <{ %class.btSequentialImpulseConstraintSolver, %class.btAlignedObjectArray.10, %class.btAlignedObjectArray.10, %class.btAlignedObjectArray.10, %class.btAlignedObjectArray.10, %class.btAlignedObjectArray.10, %struct.btMultiBodyJacobianData, ptr, i32, [4 x i8] }>

; Function Attrs: mustprogress uwtable
define dso_local void @_ZN37btDeformableMultiBodyConstraintSolver24solveDeformableBodyGroupEPP17btCollisionObjectiS2_iPP20btPersistentManifoldiPP17btTypedConstraintiPP21btMultiBodyConstraintiRK19btContactSolverInfoP12btIDebugDrawP12btDispatcher(ptr noundef nonnull align 8 dereferenceable(800) %0, ptr noundef %1, i32 noundef %2, ptr noundef %3, i32 noundef %4, ptr noundef %5, i32 noundef %6, ptr noundef %7, i32 noundef %8, ptr noundef %9, i32 noundef %10, ptr noundef nonnull align 4 dereferenceable(128) %11, ptr noundef %12, ptr noundef %13) unnamed_addr #7 align 2 {
  %15 = alloca ptr, align 8
  %16 = alloca ptr, align 8
  %17 = alloca i32, align 4
  %18 = alloca ptr, align 8
  %19 = alloca i32, align 4
  %20 = alloca ptr, align 8
  %21 = alloca i32, align 4
  %22 = alloca ptr, align 8
  %23 = alloca i32, align 4
  %24 = alloca ptr, align 8
  %25 = alloca i32, align 4
  %26 = alloca ptr, align 8
  %27 = alloca ptr, align 8
  %28 = alloca ptr, align 8
  store ptr %0, ptr %15, align 8, !tbaa !58
  store ptr %1, ptr %16, align 8, !tbaa !60
  store i32 %2, ptr %17, align 4, !tbaa !9
  store ptr %3, ptr %18, align 8, !tbaa !60
  store i32 %4, ptr %19, align 4, !tbaa !9
  store ptr %5, ptr %20, align 8, !tbaa !62
  store i32 %6, ptr %21, align 4, !tbaa !9
  store ptr %7, ptr %22, align 8, !tbaa !64
  store i32 %8, ptr %23, align 4, !tbaa !9
  store ptr %9, ptr %24, align 8, !tbaa !143
  store i32 %10, ptr %25, align 4, !tbaa !9
  store ptr %11, ptr %26, align 8, !tbaa !66
  store ptr %12, ptr %27, align 8, !tbaa !68
  store ptr %13, ptr %28, align 8, !tbaa !144
  %29 = load ptr, ptr %15, align 8
  %30 = load ptr, ptr %24, align 8, !tbaa !143
  %31 = getelementptr inbounds nuw %class.btMultiBodyConstraintSolver, ptr %29, i32 0, i32 7
  store ptr %30, ptr %31, align 8, !tbaa !146
  %32 = load i32, ptr %25, align 4, !tbaa !9
  %33 = getelementptr inbounds nuw %class.btMultiBodyConstraintSolver, ptr %29, i32 0, i32 8
  store i32 %32, ptr %33, align 8, !tbaa !147
  %34 = load ptr, ptr %16, align 8, !tbaa !60
  %35 = load i32, ptr %17, align 4, !tbaa !9
  %36 = load ptr, ptr %20, align 8, !tbaa !62
  %37 = load i32, ptr %21, align 4, !tbaa !9
  %38 = load ptr, ptr %22, align 8, !tbaa !64
  %39 = load i32, ptr %23, align 4, !tbaa !9
  %40 = load ptr, ptr %26, align 8, !tbaa !66
  %41 = load ptr, ptr %27, align 8, !tbaa !68
  %42 = load ptr, ptr %29, align 8, !tbaa !51
  %43 = getelementptr inbounds ptr, ptr %42, i64 13
  %44 = load ptr, ptr %43, align 8
  %45 = call noundef float %44(ptr noundef nonnull align 8 dereferenceable(788) %29, ptr noundef %34, i32 noundef %35, ptr noundef %36, i32 noundef %37, ptr noundef %38, i32 noundef %39, ptr noundef nonnull align 4 dereferenceable(128) %40, ptr noundef %41)
  %46 = load ptr, ptr %16, align 8, !tbaa !60
  %47 = load i32, ptr %17, align 4, !tbaa !9
  %48 = load ptr, ptr %18, align 8, !tbaa !60
  %49 = load i32, ptr %19, align 4, !tbaa !9
  %50 = load ptr, ptr %20, align 8, !tbaa !62
  %51 = load i32, ptr %21, align 4, !tbaa !9
  %52 = load ptr, ptr %22, align 8, !tbaa !64
  %53 = load i32, ptr %23, align 4, !tbaa !9
  %54 = load ptr, ptr %26, align 8, !tbaa !66
  %55 = load ptr, ptr %27, align 8, !tbaa !68
  %56 = load ptr, ptr %29, align 8, !tbaa !51
  %57 = getelementptr inbounds ptr, ptr %56, i64 17
  %58 = load ptr, ptr %57, align 8
  %59 = call noundef float %58(ptr noundef nonnull align 8 dereferenceable(800) %29, ptr noundef %46, i32 noundef %47, ptr noundef %48, i32 noundef %49, ptr noundef %50, i32 noundef %51, ptr noundef %52, i32 noundef %53, ptr noundef nonnull align 4 dereferenceable(128) %54, ptr noundef %55)
  %60 = load ptr, ptr %16, align 8, !tbaa !60
  %61 = load i32, ptr %17, align 4, !tbaa !9
  %62 = load ptr, ptr %26, align 8, !tbaa !66
  %63 = load ptr, ptr %29, align 8, !tbaa !51
  %64 = getelementptr inbounds ptr, ptr %63, i64 11
  %65 = load ptr, ptr %64, align 8
  %66 = call noundef float %65(ptr noundef nonnull align 8 dereferenceable(788) %29, ptr noundef %60, i32 noundef %61, ptr noundef nonnull align 4 dereferenceable(128) %62)
  %67 = getelementptr inbounds nuw %class.btMultiBodyConstraintSolver, ptr %29, i32 0, i32 7
  store ptr null, ptr %67, align 8, !tbaa !146
  %68 = getelementptr inbounds nuw %class.btMultiBodyConstraintSolver, ptr %29, i32 0, i32 8
  store i32 0, ptr %68, align 8, !tbaa !147
  ret void
}