; Function Attrs: mustprogress uwtable
define dso_local void @_ZN37btDeformableMultiBodyConstraintSolver24solveDeformableBodyGroupEPP17btCollisionObjectiS2_iPP20btPersistentManifoldiPP17btTypedConstraintiPP21btMultiBodyConstraintiRK19btContactSolverInfoP12btIDebugDrawP12btDispatcher(ptr noundef nonnull align 8 dereferenceable(800) initializes((776, 788)) %0, ptr noundef %1, i32 noundef %2, ptr noundef %3, i32 noundef %4, ptr noundef %5, i32 noundef %6, ptr noundef %7, i32 noundef %8, ptr noundef %9, i32 noundef %10, ptr noundef nonnull align 4 dereferenceable(128) %11, ptr noundef %12, ptr readnone captures(none) %13) unnamed_addr #4 align 2 {
  %15 = getelementptr inbounds nuw i8, ptr %0, i64 776
  store ptr %9, ptr %15, align 8, !tbaa !169
  %16 = getelementptr inbounds nuw i8, ptr %0, i64 784
  store i32 %10, ptr %16, align 8, !tbaa !170
  %17 = load ptr, ptr %0, align 8, !tbaa !50
  %18 = getelementptr inbounds nuw i8, ptr %17, i64 104
  %19 = load ptr, ptr %18, align 8
  %20 = tail call noundef float %19(ptr noundef nonnull align 8 dereferenceable(788) %0, ptr noundef %1, i32 noundef %2, ptr noundef %5, i32 noundef %6, ptr noundef %7, i32 noundef %8, ptr noundef nonnull align 4 dereferenceable(128) %11, ptr noundef %12)
  %21 = load ptr, ptr %0, align 8, !tbaa !50
  %22 = getelementptr inbounds nuw i8, ptr %21, i64 136
  %23 = load ptr, ptr %22, align 8
  %24 = tail call noundef float %23(ptr noundef nonnull align 8 dereferenceable(800) %0, ptr noundef %1, i32 noundef %2, ptr noundef %3, i32 noundef %4, ptr noundef %5, i32 noundef %6, ptr noundef %7, i32 noundef %8, ptr noundef nonnull align 4 dereferenceable(128) %11, ptr noundef %12)
  %25 = load ptr, ptr %0, align 8, !tbaa !50
  %26 = getelementptr inbounds nuw i8, ptr %25, i64 88
  %27 = load ptr, ptr %26, align 8
  %28 = tail call noundef float %27(ptr noundef nonnull align 8 dereferenceable(788) %0, ptr noundef %1, i32 noundef %2, ptr noundef nonnull align 4 dereferenceable(128) %11)
  store ptr null, ptr %15, align 8, !tbaa !169
  store i32 0, ptr %16, align 8, !tbaa !170
  ret void
}